target datalayout = "e-m:e-p270:32:32-p271:32:32-p272:64:64-i64:64-i128:128-f80:128-n8:16:32:64-S128"
target triple = "x86_64-pc-linux-gnu"

%struct.yyguts_t = type { ptr, ptr, ptr, i64, i64, ptr, i8, i32, i32, ptr, i32, i32, i32, i32, i32, ptr, i32, ptr, i32, i32, ptr, i32, i32, ptr }
%struct.yy_buffer_state = type { ptr, ptr, ptr, i32, i32, i32, i32, i32, i32, i32, i32, i32 }

; Function Attrs: nounwind uwtable
define dso_local i32 @syncrep_yyget_column(ptr noundef %0) #0 {
  %2 = alloca i32, align 4
  %3 = alloca ptr, align 8
  %4 = alloca ptr, align 8
  %5 = alloca i32, align 4
  store ptr %0, ptr %3, align 8
  call void @llvm.lifetime.start.p0(i64 8, ptr %4) #10
  %6 = load ptr, ptr %3, align 8
  store ptr %6, ptr %4, align 8
  %7 = load ptr, ptr %4, align 8
  %8 = getelementptr inbounds nuw %struct.yyguts_t, ptr %7, i32 0, i32 5
  %9 = load ptr, ptr %8, align 8
  %10 = icmp ne ptr %9, null
  br i1 %10, label %11, label %21

11:                                               ; preds = %1
  %12 = load ptr, ptr %4, align 8
  %13 = getelementptr inbounds nuw %struct.yyguts_t, ptr %12, i32 0, i32 5
  %14 = load ptr, ptr %13, align 8
  %15 = load ptr, ptr %4, align 8
  %16 = getelementptr inbounds nuw %struct.yyguts_t, ptr %15, i32 0, i32 3
  %17 = load i64, ptr %16, align 8
  %18 = getelementptr inbounds nuw ptr, ptr %14, i64 %17
  %19 = load ptr, ptr %18, align 8
  %20 = icmp ne ptr %19, null
  br i1 %20, label %23, label %22

21:                                               ; preds = %1
  br i1 false, label %23, label %22

22:                                               ; preds = %21, %11
  store i32 0, ptr %2, align 4
  store i32 1, ptr %5, align 4
  br label %34

23:                                               ; preds = %21, %11
  %24 = load ptr, ptr %4, align 8
  %25 = getelementptr inbounds nuw %struct.yyguts_t, ptr %24, i32 0, i32 5
  %26 = load ptr, ptr %25, align 8
  %27 = load ptr, ptr %4, align 8
  %28 = getelementptr inbounds nuw %struct.yyguts_t, ptr %27, i32 0, i32 3
  %29 = load i64, ptr %28, align 8
  %30 = getelementptr inbounds nuw ptr, ptr %26, i64 %29
  %31 = load ptr, ptr %30, align 8
  %32 = getelementptr inbounds nuw %struct.yy_buffer_state, ptr %31, i32 0, i32 9
  %33 = load i32, ptr %32, align 8
  store i32 %33, ptr %2, align 4
  store i32 1, ptr %5, align 4
  br label %34

34:                                               ; preds = %23, %22
  call void @llvm.lifetime.end.p0(i64 8, ptr %4) #10
  %35 = load i32, ptr %2, align 4
  ret i32 %35
}